target datalayout = "e-m:e-p270:32:32-p271:32:32-p272:64:64-i64:64-i128:128-f80:128-n8:16:32:64-S128"
target triple = "x86_64-pc-linux-gnu"

%"class.std::basic_string_view" = type { i64, ptr }
%"class.absl::substitute_internal::Arg" = type { %"class.std::basic_string_view", [32 x i8] }

@.str.3 = private unnamed_addr constant [5 x i8] c"NULL\00", align 1
@_ZN4absl16numbers_internal8kHexCharE = external constant [17 x i8], align 16

; Function Attrs: noinline noreturn nounwind uwtable
define linkonce_odr hidden void @__clang_call_terminate(ptr noundef %0) #7 comdat {
  %2 = call ptr @__cxa_begin_catch(ptr %0) #14
  call void @_ZSt9terminatev() #16
  unreachable
}

; Function Attrs: mustprogress nounwind uwtable
define linkonce_odr dso_local noundef i64 @_ZNSt11char_traitsIcE6lengthEPKc(ptr noundef %0) #2 comdat align 2 {
  %2 = alloca ptr, align 8
  store ptr %0, ptr %2, align 8, !tbaa !18
  %3 = load ptr, ptr %2, align 8, !tbaa !18
  %4 = call i64 @strlen(ptr noundef %3) #14
  ret i64 %4
}

; Function Attrs: mustprogress nounwind uwtable
define linkonce_odr dso_local void @_ZNSt17basic_string_viewIcSt11char_traitsIcEEC2EPKcm(ptr noundef nonnull align 8 dereferenceable(16) %0, ptr noundef %1, i64 noundef %2) unnamed_addr #2 comdat align 2 {
  %4 = alloca ptr, align 8
  %5 = alloca ptr, align 8
  %6 = alloca i64, align 8
  store ptr %0, ptr %4, align 8, !tbaa !9
  store ptr %1, ptr %5, align 8, !tbaa !18
  store i64 %2, ptr %6, align 8, !tbaa !11
  %7 = load ptr, ptr %4, align 8
  %8 = getelementptr inbounds nuw %"class.std::basic_string_view", ptr %7, i32 0, i32 0
  %9 = load i64, ptr %6, align 8, !tbaa !11
  store i64 %9, ptr %8, align 8, !tbaa !24
  %10 = getelementptr inbounds nuw %"class.std::basic_string_view", ptr %7, i32 0, i32 1
  %11 = load ptr, ptr %5, align 8, !tbaa !18
  store ptr %11, ptr %10, align 8, !tbaa !26
  ret void
}

; Function Attrs: mustprogress nounwind uwtable
define linkonce_odr dso_local void @_ZNSt17basic_string_viewIcSt11char_traitsIcEEC2EPKc(ptr noundef nonnull align 8 dereferenceable(16) %0, ptr noundef nonnull %1) unnamed_addr #2 comdat align 2 personality ptr @__gxx_personality_v0 {
  %3 = alloca ptr, align 8
  %4 = alloca ptr, align 8
  store ptr %0, ptr %3, align 8, !tbaa !9
  store ptr %1, ptr %4, align 8, !tbaa !18
  %5 = load ptr, ptr %3, align 8
  %6 = getelementptr inbounds nuw %"class.std::basic_string_view", ptr %5, i32 0, i32 0
  %7 = load ptr, ptr %4, align 8, !tbaa !18
  %8 = invoke noundef i64 @_ZNSt11char_traitsIcE6lengthEPKc(ptr noundef %7)
          to label %9 unwind label %12

9:                                                ; preds = %2
  store i64 %8, ptr %6, align 8, !tbaa !24
  %10 = getelementptr inbounds nuw %"class.std::basic_string_view", ptr %5, i32 0, i32 1
  %11 = load ptr, ptr %4, align 8, !tbaa !18
  store ptr %11, ptr %10, align 8, !tbaa !26
  ret void

12:                                               ; preds = %2
  %13 = landingpad { ptr, i32 }
          catch ptr null
  %14 = extractvalue { ptr, i32 } %13, 0
  call void @__clang_call_terminate(ptr %14) #16
  unreachable
}

; Function Attrs: mustprogress nounwind uwtable
define linkonce_odr dso_local void @_ZNSt17basic_string_viewIcSt11char_traitsIcEEC2Ev(ptr noundef nonnull align 8 dereferenceable(16) %0) unnamed_addr #2 comdat align 2 {
  %2 = alloca ptr, align 8
  store ptr %0, ptr %2, align 8, !tbaa !9
  %3 = load ptr, ptr %2, align 8
  %4 = getelementptr inbounds nuw %"class.std::basic_string_view", ptr %3, i32 0, i32 0
  store i64 0, ptr %4, align 8, !tbaa !24
  %5 = getelementptr inbounds nuw %"class.std::basic_string_view", ptr %3, i32 0, i32 1
  store ptr null, ptr %5, align 8, !tbaa !26
  ret void
}

; Function Attrs: mustprogress nounwind uwtable
define dso_local void @_ZN4absl19substitute_internal3ArgC2EPKv(ptr noundef nonnull align 8 dereferenceable(48) %0, ptr noundef %1) unnamed_addr #2 align 2 {
  %3 = alloca ptr, align 8
  %4 = alloca ptr, align 8
  %5 = alloca %"class.std::basic_string_view", align 8
  %6 = alloca ptr, align 8
  %7 = alloca i64, align 8
  %8 = alloca %"class.std::basic_string_view", align 8
  store ptr %0, ptr %3, align 8, !tbaa !39
  store ptr %1, ptr %4, align 8, !tbaa !34
  %9 = load ptr, ptr %3, align 8
  %10 = getelementptr inbounds nuw %"class.absl::substitute_internal::Arg", ptr %9, i32 0, i32 0
  call void @_ZNSt17basic_string_viewIcSt11char_traitsIcEEC2Ev(ptr noundef nonnull align 8 dereferenceable(16) %10) #14
  %11 = load ptr, ptr %4, align 8, !tbaa !34
  %12 = icmp eq ptr %11, null
  br i1 %12, label %13, label %15

13:                                               ; preds = %2
  call void @llvm.lifetime.start.p0(i64 16, ptr %5) #14
  call void @_ZNSt17basic_string_viewIcSt11char_traitsIcEEC2EPKc(ptr noundef nonnull align 8 dereferenceable(16) %5, ptr noundef @.str.3) #14
  %14 = getelementptr inbounds nuw %"class.absl::substitute_internal::Arg", ptr %9, i32 0, i32 0
  call void @llvm.memcpy.p0.p0.i64(ptr align 8 %14, ptr align 8 %5, i64 16, i1 false), !tbaa.struct !22
  call void @llvm.lifetime.end.p0(i64 16, ptr %5) #14
  br label %47

15:                                               ; preds = %2
  call void @llvm.lifetime.start.p0(i64 8, ptr %6) #14
  %16 = getelementptr inbounds nuw %"class.absl::substitute_internal::Arg", ptr %9, i32 0, i32 1
  %17 = getelementptr inbounds [32 x i8], ptr %16, i64 0, i64 0
  %18 = getelementptr inbounds nuw i8, ptr %17, i64 32
  store ptr %18, ptr %6, align 8, !tbaa !18
  call void @llvm.lifetime.start.p0(i64 8, ptr %7) #14
  %19 = load ptr, ptr %4, align 8, !tbaa !34
  %20 = ptrtoint ptr %19 to i64
  store i64 %20, ptr %7, align 8, !tbaa !11
  br label %21

21:                                               ; preds = %30, %15
  %22 = load i64, ptr %7, align 8, !tbaa !11
  %23 = and i64 %22, 15
  %24 = getelementptr inbounds nuw [17 x i8], ptr @_ZN4absl16numbers_internal8kHexCharE, i64 0, i64 %23
  %25 = load i8, ptr %24, align 1, !tbaa !13
  %26 = load ptr, ptr %6, align 8, !tbaa !18
  %27 = getelementptr inbounds i8, ptr %26, i32 -1
  store ptr %27, ptr %6, align 8, !tbaa !18
  store i8 %25, ptr %27, align 1, !tbaa !13
  %28 = load i64, ptr %7, align 8, !tbaa !11
  %29 = lshr i64 %28, 4
  store i64 %29, ptr %7, align 8, !tbaa !11
  br label %30

30:                                               ; preds = %21
  %31 = load i64, ptr %7, align 8, !tbaa !11
  %32 = icmp ne i64 %31, 0
  br i1 %32, label %21, label %33, !llvm.loop !41

33:                                               ; preds = %30
  %34 = load ptr, ptr %6, align 8, !tbaa !18
  %35 = getelementptr inbounds i8, ptr %34, i32 -1
  store ptr %35, ptr %6, align 8, !tbaa !18
  store i8 120, ptr %35, align 1, !tbaa !13
  %36 = load ptr, ptr %6, align 8, !tbaa !18
  %37 = getelementptr inbounds i8, ptr %36, i32 -1
  store ptr %37, ptr %6, align 8, !tbaa !18
  store i8 48, ptr %37, align 1, !tbaa !13
  call void @llvm.lifetime.start.p0(i64 16, ptr %8) #14
  %38 = load ptr, ptr %6, align 8, !tbaa !18
  %39 = getelementptr inbounds nuw %"class.absl::substitute_internal::Arg", ptr %9, i32 0, i32 1
  %40 = getelementptr inbounds [32 x i8], ptr %39, i64 0, i64 0
  %41 = getelementptr inbounds nuw i8, ptr %40, i64 32
  %42 = load ptr, ptr %6, align 8, !tbaa !18
  %43 = ptrtoint ptr %41 to i64
  %44 = ptrtoint ptr %42 to i64
  %45 = sub i64 %43, %44
  call void @_ZNSt17basic_string_viewIcSt11char_traitsIcEEC2EPKcm(ptr noundef nonnull align 8 dereferenceable(16) %8, ptr noundef %38, i64 noundef %45) #14
  %46 = getelementptr inbounds nuw %"class.absl::substitute_internal::Arg", ptr %9, i32 0, i32 0
  call void @llvm.memcpy.p0.p0.i64(ptr align 8 %46, ptr align 8 %8, i64 16, i1 false), !tbaa.struct !22
  call void @llvm.lifetime.end.p0(i64 16, ptr %8) #14
  call void @llvm.lifetime.end.p0(i64 8, ptr %7) #14
  call void @llvm.lifetime.end.p0(i64 8, ptr %6) #14
  br label %47

47:                                               ; preds = %33, %13
  ret void
}