; Function Attrs: mustprogress nofree norecurse nosync nounwind memory(argmem: write) uwtable
define dso_local void @_ZN4absl19substitute_internal3ArgC2EPKv(ptr noundef nonnull align 8 dereferenceable(48) initializes((0, 16)) %0, ptr noundef %1) unnamed_addr #3 align 2 personality ptr @__gxx_personality_v0 {
  tail call void @llvm.memset.p0.i64(ptr noundef nonnull align 8 dereferenceable(16) %0, i8 0, i64 16, i1 false)
  %3 = icmp eq ptr %1, null
  br i1 %3, label %19, label %4

4:                                                ; preds = %2
  %5 = getelementptr inbounds nuw i8, ptr %0, i64 48
  %6 = ptrtoint ptr %1 to i64
  br label %7

7:                                                ; preds = %7, %4
  %.010 = phi ptr [ %5, %4 ], [ %11, %7 ]
  %.0 = phi i64 [ %6, %4 ], [ %12, %7 ]
  %8 = and i64 %.0, 15
  %9 = getelementptr inbounds nuw [17 x i8], ptr @_ZN4absl16numbers_internal8kHexCharE, i64 0, i64 %8
  %10 = load i8, ptr %9, align 1, !tbaa !4
  %11 = getelementptr inbounds i8, ptr %.010, i64 -1
  store i8 %10, ptr %11, align 1, !tbaa !4
  %12 = lshr i64 %.0, 4
  %.not = icmp ult i64 %.0, 16
  br i1 %.not, label %13, label %7, !llvm.loop !23

13:                                               ; preds = %7
  %14 = getelementptr inbounds i8, ptr %.010, i64 -2
  store i8 120, ptr %14, align 1, !tbaa !4
  %15 = getelementptr inbounds i8, ptr %.010, i64 -3
  store i8 48, ptr %15, align 1, !tbaa !4
  %16 = ptrtoint ptr %5 to i64
  %17 = ptrtoint ptr %15 to i64
  %18 = sub i64 %16, %17
  br label %19

19:                                               ; preds = %2, %13
  %.sink14 = phi i64 [ %18, %13 ], [ 4, %2 ]
  %.sink = phi ptr [ %15, %13 ], [ @.str.3, %2 ]
  store i64 %.sink14, ptr %0, align 8, !tbaa !19
  %.sroa.4.0..sroa_idx = getelementptr inbounds nuw i8, ptr %0, i64 8
  store ptr %.sink, ptr %.sroa.4.0..sroa_idx, align 8, !tbaa !20
  ret void
}